target datalayout = "e-m:e-p270:32:32-p271:32:32-p272:64:64-i64:64-i128:128-f80:128-n8:16:32:64-S128"
target triple = "x86_64-pc-linux-gnu"

%struct.mbedtls_ecp_group = type { i32, %struct.mbedtls_mpi, %struct.mbedtls_mpi, %struct.mbedtls_mpi, %struct.mbedtls_ecp_point, %struct.mbedtls_mpi, i64, i64, i32, ptr, ptr, ptr, ptr, ptr, i64 }
%struct.mbedtls_ecp_point = type { %struct.mbedtls_mpi, %struct.mbedtls_mpi, %struct.mbedtls_mpi }
%struct.mbedtls_mpi = type { ptr, i16, i16 }

; Function Attrs: nounwind uwtable
define hidden i32 @mbedtls_ecp_get_type(ptr noundef %0) #0 {
  %2 = alloca i32, align 4
  %3 = alloca ptr, align 8
  store ptr %0, ptr %3, align 8, !tbaa !25
  %4 = load ptr, ptr %3, align 8, !tbaa !25
  %5 = getelementptr inbounds nuw %struct.mbedtls_ecp_group, ptr %4, i32 0, i32 4
  %6 = getelementptr inbounds nuw %struct.mbedtls_ecp_point, ptr %5, i32 0, i32 0
  %7 = getelementptr inbounds nuw %struct.mbedtls_mpi, ptr %6, i32 0, i32 0
  %8 = load ptr, ptr %7, align 8, !tbaa !27
  %9 = icmp eq ptr %8, null
  br i1 %9, label %10, label %11

10:                                               ; preds = %1
  store i32 0, ptr %2, align 4
  br label %20

11:                                               ; preds = %1
  %12 = load ptr, ptr %3, align 8, !tbaa !25
  %13 = getelementptr inbounds nuw %struct.mbedtls_ecp_group, ptr %12, i32 0, i32 4
  %14 = getelementptr inbounds nuw %struct.mbedtls_ecp_point, ptr %13, i32 0, i32 1
  %15 = getelementptr inbounds nuw %struct.mbedtls_mpi, ptr %14, i32 0, i32 0
  %16 = load ptr, ptr %15, align 8, !tbaa !33
  %17 = icmp eq ptr %16, null
  br i1 %17, label %18, label %19

18:                                               ; preds = %11
  store i32 2, ptr %2, align 4
  br label %20

19:                                               ; preds = %11
  store i32 1, ptr %2, align 4
  br label %20

20:                                               ; preds = %19, %18, %10
  %21 = load i32, ptr %2, align 4
  ret i32 %21
}

; Function Attrs: nounwind uwtable
define hidden i32 @mbedtls_ecp_point_write_binary(ptr noundef %0, ptr noundef %1, i32 noundef %2, ptr noundef %3, ptr noundef %4, i64 noundef %5) #0 {
  %7 = alloca i32, align 4
  %8 = alloca ptr, align 8
  %9 = alloca ptr, align 8
  %10 = alloca i32, align 4
  %11 = alloca ptr, align 8
  %12 = alloca ptr, align 8
  %13 = alloca i64, align 8
  %14 = alloca i32, align 4
  %15 = alloca i64, align 8
  %16 = alloca i32, align 4
  store ptr %0, ptr %8, align 8, !tbaa !25
  store ptr %1, ptr %9, align 8, !tbaa !34
  store i32 %2, ptr %10, align 4, !tbaa !3
  store ptr %3, ptr %11, align 8, !tbaa !48
  store ptr %4, ptr %12, align 8, !tbaa !22
  store i64 %5, ptr %13, align 8, !tbaa !7
  call void @llvm.lifetime.start.p0(i64 4, ptr %14) #11
  store i32 -20096, ptr %14, align 4, !tbaa !3
  call void @llvm.lifetime.start.p0(i64 8, ptr %15) #11
  %17 = load i32, ptr %10, align 4, !tbaa !3
  %18 = icmp ne i32 %17, 0
  br i1 %18, label %19, label %23

19:                                               ; preds = %6
  %20 = load i32, ptr %10, align 4, !tbaa !3
  %21 = icmp ne i32 %20, 1
  br i1 %21, label %22, label %23

22:                                               ; preds = %19
  store i32 -20352, ptr %7, align 4
  store i32 1, ptr %16, align 4
  br label %146

23:                                               ; preds = %19, %6
  %24 = load ptr, ptr %8, align 8, !tbaa !25
  %25 = getelementptr inbounds nuw %struct.mbedtls_ecp_group, ptr %24, i32 0, i32 1
  %26 = call i64 @mbedtls_mpi_size(ptr noundef %25)
  store i64 %26, ptr %15, align 8, !tbaa !7
  %27 = load ptr, ptr %8, align 8, !tbaa !25
  %28 = call i32 @mbedtls_ecp_get_type(ptr noundef %27)
  %29 = icmp eq i32 %28, 2
  br i1 %29, label %30, label %50

30:                                               ; preds = %23
  %31 = load i64, ptr %15, align 8, !tbaa !7
  %32 = load ptr, ptr %11, align 8, !tbaa !48
  store i64 %31, ptr %32, align 8, !tbaa !7
  %33 = load i64, ptr %13, align 8, !tbaa !7
  %34 = load ptr, ptr %11, align 8, !tbaa !48
  %35 = load i64, ptr %34, align 8, !tbaa !7
  %36 = icmp ult i64 %33, %35
  br i1 %36, label %37, label %38

37:                                               ; preds = %30
  store i32 -20224, ptr %7, align 4
  store i32 1, ptr %16, align 4
  br label %146

38:                                               ; preds = %30
  br label %39

39:                                               ; preds = %38
  %40 = load ptr, ptr %9, align 8, !tbaa !34
  %41 = getelementptr inbounds nuw %struct.mbedtls_ecp_point, ptr %40, i32 0, i32 0
  %42 = load ptr, ptr %12, align 8, !tbaa !22
  %43 = load i64, ptr %15, align 8, !tbaa !7
  %44 = call i32 @mbedtls_mpi_write_binary_le(ptr noundef %41, ptr noundef %42, i64 noundef %43)
  store i32 %44, ptr %14, align 4, !tbaa !3
  %45 = icmp ne i32 %44, 0
  br i1 %45, label %46, label %47

46:                                               ; preds = %39
  br label %144

47:                                               ; preds = %39
  br label %48

48:                                               ; preds = %47
  br label %49

49:                                               ; preds = %48
  br label %50

50:                                               ; preds = %49, %23
  %51 = load ptr, ptr %8, align 8, !tbaa !25
  %52 = call i32 @mbedtls_ecp_get_type(ptr noundef %51)
  %53 = icmp eq i32 %52, 1
  br i1 %53, label %54, label %143

54:                                               ; preds = %50
  %55 = load ptr, ptr %9, align 8, !tbaa !34
  %56 = getelementptr inbounds nuw %struct.mbedtls_ecp_point, ptr %55, i32 0, i32 2
  %57 = call i32 @mbedtls_mpi_cmp_int(ptr noundef %56, i64 noundef 0)
  %58 = icmp eq i32 %57, 0
  br i1 %58, label %59, label %67

59:                                               ; preds = %54
  %60 = load i64, ptr %13, align 8, !tbaa !7
  %61 = icmp ult i64 %60, 1
  br i1 %61, label %62, label %63

62:                                               ; preds = %59
  store i32 -20224, ptr %7, align 4
  store i32 1, ptr %16, align 4
  br label %146

63:                                               ; preds = %59
  %64 = load ptr, ptr %12, align 8, !tbaa !22
  %65 = getelementptr inbounds i8, ptr %64, i64 0
  store i8 0, ptr %65, align 1, !tbaa !49
  %66 = load ptr, ptr %11, align 8, !tbaa !48
  store i64 1, ptr %66, align 8, !tbaa !7
  store i32 0, ptr %7, align 4
  store i32 1, ptr %16, align 4
  br label %146

67:                                               ; preds = %54
  %68 = load i32, ptr %10, align 4, !tbaa !3
  %69 = icmp eq i32 %68, 0
  br i1 %69, label %70, label %109

70:                                               ; preds = %67
  %71 = load i64, ptr %15, align 8, !tbaa !7
  %72 = mul i64 2, %71
  %73 = add i64 %72, 1
  %74 = load ptr, ptr %11, align 8, !tbaa !48
  store i64 %73, ptr %74, align 8, !tbaa !7
  %75 = load i64, ptr %13, align 8, !tbaa !7
  %76 = load ptr, ptr %11, align 8, !tbaa !48
  %77 = load i64, ptr %76, align 8, !tbaa !7
  %78 = icmp ult i64 %75, %77
  br i1 %78, label %79, label %80

79:                                               ; preds = %70
  store i32 -20224, ptr %7, align 4
  store i32 1, ptr %16, align 4
  br label %146

80:                                               ; preds = %70
  %81 = load ptr, ptr %12, align 8, !tbaa !22
  %82 = getelementptr inbounds i8, ptr %81, i64 0
  store i8 4, ptr %82, align 1, !tbaa !49
  br label %83

83:                                               ; preds = %80
  %84 = load ptr, ptr %9, align 8, !tbaa !34
  %85 = getelementptr inbounds nuw %struct.mbedtls_ecp_point, ptr %84, i32 0, i32 0
  %86 = load ptr, ptr %12, align 8, !tbaa !22
  %87 = getelementptr inbounds i8, ptr %86, i64 1
  %88 = load i64, ptr %15, align 8, !tbaa !7
  %89 = call i32 @mbedtls_mpi_write_binary(ptr noundef %85, ptr noundef %87, i64 noundef %88)
  store i32 %89, ptr %14, align 4, !tbaa !3
  %90 = icmp ne i32 %89, 0
  br i1 %90, label %91, label %92

91:                                               ; preds = %83
  br label %144

92:                                               ; preds = %83
  br label %93

93:                                               ; preds = %92
  br label %94

94:                                               ; preds = %93
  br label %95

95:                                               ; preds = %94
  %96 = load ptr, ptr %9, align 8, !tbaa !34
  %97 = getelementptr inbounds nuw %struct.mbedtls_ecp_point, ptr %96, i32 0, i32 1
  %98 = load ptr, ptr %12, align 8, !tbaa !22
  %99 = getelementptr inbounds i8, ptr %98, i64 1
  %100 = load i64, ptr %15, align 8, !tbaa !7
  %101 = getelementptr inbounds nuw i8, ptr %99, i64 %100
  %102 = load i64, ptr %15, align 8, !tbaa !7
  %103 = call i32 @mbedtls_mpi_write_binary(ptr noundef %97, ptr noundef %101, i64 noundef %102)
  store i32 %103, ptr %14, align 4, !tbaa !3
  %104 = icmp ne i32 %103, 0
  br i1 %104, label %105, label %106

105:                                              ; preds = %95
  br label %144

106:                                              ; preds = %95
  br label %107

107:                                              ; preds = %106
  br label %108

108:                                              ; preds = %107
  br label %142

109:                                              ; preds = %67
  %110 = load i32, ptr %10, align 4, !tbaa !3
  %111 = icmp eq i32 %110, 1
  br i1 %111, label %112, label %141

112:                                              ; preds = %109
  %113 = load i64, ptr %15, align 8, !tbaa !7
  %114 = add i64 %113, 1
  %115 = load ptr, ptr %11, align 8, !tbaa !48
  store i64 %114, ptr %115, align 8, !tbaa !7
  %116 = load i64, ptr %13, align 8, !tbaa !7
  %117 = load ptr, ptr %11, align 8, !tbaa !48
  %118 = load i64, ptr %117, align 8, !tbaa !7
  %119 = icmp ult i64 %116, %118
  br i1 %119, label %120, label %121

120:                                              ; preds = %112
  store i32 -20224, ptr %7, align 4
  store i32 1, ptr %16, align 4
  br label %146

121:                                              ; preds = %112
  %122 = load ptr, ptr %9, align 8, !tbaa !34
  %123 = getelementptr inbounds nuw %struct.mbedtls_ecp_point, ptr %122, i32 0, i32 1
  %124 = call i32 @mbedtls_mpi_get_bit(ptr noundef %123, i64 noundef 0)
  %125 = add nsw i32 2, %124
  %126 = trunc i32 %125 to i8
  %127 = load ptr, ptr %12, align 8, !tbaa !22
  %128 = getelementptr inbounds i8, ptr %127, i64 0
  store i8 %126, ptr %128, align 1, !tbaa !49
  br label %129

129:                                              ; preds = %121
  %130 = load ptr, ptr %9, align 8, !tbaa !34
  %131 = getelementptr inbounds nuw %struct.mbedtls_ecp_point, ptr %130, i32 0, i32 0
  %132 = load ptr, ptr %12, align 8, !tbaa !22
  %133 = getelementptr inbounds i8, ptr %132, i64 1
  %134 = load i64, ptr %15, align 8, !tbaa !7
  %135 = call i32 @mbedtls_mpi_write_binary(ptr noundef %131, ptr noundef %133, i64 noundef %134)
  store i32 %135, ptr %14, align 4, !tbaa !3
  %136 = icmp ne i32 %135, 0
  br i1 %136, label %137, label %138

137:                                              ; preds = %129
  br label %144

138:                                              ; preds = %129
  br label %139

139:                                              ; preds = %138
  br label %140

140:                                              ; preds = %139
  br label %141

141:                                              ; preds = %140, %109
  br label %142

142:                                              ; preds = %141, %108
  br label %143

143:                                              ; preds = %142, %50
  br label %144

144:                                              ; preds = %143, %137, %105, %91, %46
  %145 = load i32, ptr %14, align 4, !tbaa !3
  store i32 %145, ptr %7, align 4
  store i32 1, ptr %16, align 4
  br label %146

146:                                              ; preds = %144, %120, %79, %63, %62, %37, %22
  call void @llvm.lifetime.end.p0(i64 8, ptr %15) #11
  call void @llvm.lifetime.end.p0(i64 4, ptr %14) #11
  %147 = load i32, ptr %7, align 4
  ret i32 %147
}