; Function Attrs: nounwind uwtable
define hidden i32 @mbedtls_ecp_point_write_binary(ptr noundef %0, ptr noundef %1, i32 noundef %2, ptr noundef writeonly captures(none) %3, ptr noundef %4, i64 noundef %5) local_unnamed_addr #7 {
  %or.cond = icmp ugt i32 %2, 1
  br i1 %or.cond, label %mbedtls_ecp_get_type.exit51.thread, label %7

7:                                                ; preds = %6
  %8 = getelementptr inbounds nuw i8, ptr %0, i64 8
  %9 = tail call i64 @mbedtls_mpi_size(ptr noundef nonnull %8) #21
  %10 = getelementptr inbounds nuw i8, ptr %0, i64 56
  %11 = load ptr, ptr %10, align 8, !tbaa !19
  %12 = icmp eq ptr %11, null
  br i1 %12, label %mbedtls_ecp_get_type.exit51.thread, label %13

13:                                               ; preds = %7
  %14 = getelementptr inbounds nuw i8, ptr %0, i64 72
  %15 = load ptr, ptr %14, align 8, !tbaa !26
  %16 = icmp eq ptr %15, null
  br i1 %16, label %mbedtls_ecp_get_type.exit, label %mbedtls_ecp_get_type.exit51

mbedtls_ecp_get_type.exit:                        ; preds = %13
  store i64 %9, ptr %3, align 8, !tbaa !33
  %17 = icmp ult i64 %5, %9
  br i1 %17, label %mbedtls_ecp_get_type.exit51.thread, label %18

18:                                               ; preds = %mbedtls_ecp_get_type.exit
  %19 = tail call i32 @mbedtls_mpi_write_binary_le(ptr noundef %1, ptr noundef %4, i64 noundef %9) #21
  %.not = icmp eq i32 %19, 0
  br i1 %.not, label %mbedtls_ecp_get_type.exit.thread, label %mbedtls_ecp_get_type.exit51.thread

mbedtls_ecp_get_type.exit.thread:                 ; preds = %18
  %.pr.pre = load ptr, ptr %10, align 8, !tbaa !19
  %20 = icmp eq ptr %.pr.pre, null
  br i1 %20, label %mbedtls_ecp_get_type.exit51.thread, label %21

21:                                               ; preds = %mbedtls_ecp_get_type.exit.thread
  %.pr = load ptr, ptr %14, align 8, !tbaa !26
  %22 = icmp eq ptr %.pr, null
  br i1 %22, label %mbedtls_ecp_get_type.exit51.thread, label %mbedtls_ecp_get_type.exit51

mbedtls_ecp_get_type.exit51:                      ; preds = %13, %21
  %23 = getelementptr inbounds nuw i8, ptr %1, i64 32
  %24 = tail call i32 @mbedtls_mpi_cmp_int(ptr noundef nonnull %23, i64 noundef 0) #21
  %25 = icmp eq i32 %24, 0
  br i1 %25, label %26, label %29

26:                                               ; preds = %mbedtls_ecp_get_type.exit51
  %27 = icmp eq i64 %5, 0
  br i1 %27, label %mbedtls_ecp_get_type.exit51.thread, label %28

28:                                               ; preds = %26
  store i8 0, ptr %4, align 1, !tbaa !34
  store i64 1, ptr %3, align 8, !tbaa !33
  br label %mbedtls_ecp_get_type.exit51.thread

29:                                               ; preds = %mbedtls_ecp_get_type.exit51
  %switch = icmp eq i32 %2, 0
  br i1 %switch, label %30, label %40

30:                                               ; preds = %29
  %31 = shl i64 %9, 1
  %32 = or disjoint i64 %31, 1
  store i64 %32, ptr %3, align 8, !tbaa !33
  %.not47 = icmp ugt i64 %5, %31
  br i1 %.not47, label %33, label %mbedtls_ecp_get_type.exit51.thread

33:                                               ; preds = %30
  store i8 4, ptr %4, align 1, !tbaa !34
  %34 = getelementptr inbounds nuw i8, ptr %4, i64 1
  %35 = tail call i32 @mbedtls_mpi_write_binary(ptr noundef nonnull %1, ptr noundef nonnull %34, i64 noundef %9) #21
  %.not48 = icmp eq i32 %35, 0
  br i1 %.not48, label %36, label %mbedtls_ecp_get_type.exit51.thread

36:                                               ; preds = %33
  %37 = getelementptr inbounds nuw i8, ptr %1, i64 16
  %38 = getelementptr inbounds nuw i8, ptr %34, i64 %9
  %39 = tail call i32 @mbedtls_mpi_write_binary(ptr noundef nonnull %37, ptr noundef nonnull %38, i64 noundef %9) #21
  br label %mbedtls_ecp_get_type.exit51.thread

40:                                               ; preds = %29
  %41 = add i64 %9, 1
  store i64 %41, ptr %3, align 8, !tbaa !33
  %42 = icmp ult i64 %5, %41
  br i1 %42, label %mbedtls_ecp_get_type.exit51.thread, label %43

43:                                               ; preds = %40
  %44 = getelementptr inbounds nuw i8, ptr %1, i64 16
  %45 = tail call i32 @mbedtls_mpi_get_bit(ptr noundef nonnull %44, i64 noundef 0) #21
  %46 = trunc i32 %45 to i8
  %47 = add i8 %46, 2
  store i8 %47, ptr %4, align 1, !tbaa !34
  %48 = getelementptr inbounds nuw i8, ptr %4, i64 1
  %49 = tail call i32 @mbedtls_mpi_write_binary(ptr noundef nonnull %1, ptr noundef nonnull %48, i64 noundef %9) #21
  br label %mbedtls_ecp_get_type.exit51.thread

mbedtls_ecp_get_type.exit51.thread:               ; preds = %7, %21, %mbedtls_ecp_get_type.exit.thread, %18, %33, %36, %43, %40, %30, %26, %mbedtls_ecp_get_type.exit, %6, %28
  %.0 = phi i32 [ 0, %28 ], [ -20352, %6 ], [ -20224, %mbedtls_ecp_get_type.exit ], [ -20224, %26 ], [ -20224, %30 ], [ -20224, %40 ], [ %19, %18 ], [ %35, %33 ], [ %39, %36 ], [ %49, %43 ], [ 0, %mbedtls_ecp_get_type.exit.thread ], [ 0, %21 ], [ -20096, %7 ]
  ret i32 %.0
}